; Function Attrs: mustprogress nounwind uwtable
define hidden void @_ZN14ShenandoahHeap18trash_cset_regionsEv(ptr noundef nonnull align 8 dereferenceable(2657) %0) local_unnamed_addr #1 align 2 {
  %2 = getelementptr inbounds i8, ptr %0, i64 176
  %3 = tail call noundef i32 asm sideeffect "lock cmpxchgl $1,($3)", "={ax},r,{ax},r,~{cc},~{memory},~{dirflag},~{fpsr},~{flags}"(i32 1, i32 0, ptr nonnull %2) #26, !srcloc !11
  %.not.i.i = icmp eq i32 %3, 0
  br i1 %.not.i.i, label %_ZN16ShenandoahLockerC2EP14ShenandoahLockb.exit, label %4

4:                                                ; preds = %1
  %5 = getelementptr inbounds i8, ptr %0, i64 112
  tail call void @_ZN14ShenandoahLock14contended_lockEb(ptr noundef nonnull align 8 dereferenceable(208) %5, i1 noundef zeroext false) #26
  br label %_ZN16ShenandoahLockerC2EP14ShenandoahLockb.exit

_ZN16ShenandoahLockerC2EP14ShenandoahLockb.exit:  ; preds = %1, %4
  %6 = getelementptr inbounds i8, ptr %0, i64 2440
  %7 = load ptr, ptr %6, align 8
  %8 = getelementptr inbounds i8, ptr %7, i64 184
  store volatile i64 0, ptr %8, align 8
  %9 = tail call noundef ptr @_ZN23ShenandoahCollectionSet4nextEv(ptr noundef nonnull align 8 dereferenceable(256) %7) #26
  %.not4 = icmp eq ptr %9, null
  br i1 %.not4, label %_ZN16ShenandoahLockerD2Ev.exit, label %.lr.ph

.lr.ph:                                           ; preds = %_ZN16ShenandoahLockerC2EP14ShenandoahLockb.exit, %.lr.ph
  %10 = phi ptr [ %11, %.lr.ph ], [ %9, %_ZN16ShenandoahLockerC2EP14ShenandoahLockb.exit ]
  tail call void @_ZN20ShenandoahHeapRegion10make_trashEv(ptr noundef nonnull align 8 dereferenceable(96) %10) #26
  %11 = tail call noundef ptr @_ZN23ShenandoahCollectionSet4nextEv(ptr noundef nonnull align 8 dereferenceable(256) %7) #26
  %.not = icmp eq ptr %11, null
  br i1 %.not, label %_ZN16ShenandoahLockerD2Ev.exit, label %.lr.ph, !llvm.loop !38

_ZN16ShenandoahLockerD2Ev.exit:                   ; preds = %.lr.ph, %_ZN16ShenandoahLockerC2EP14ShenandoahLockb.exit
  %12 = load ptr, ptr %6, align 8
  tail call void @_ZN23ShenandoahCollectionSet5clearEv(ptr noundef nonnull align 8 dereferenceable(256) %12) #26
  tail call void asm sideeffect "lock; addl $$0,0(%rsp)", "~{cc},~{memory},~{dirflag},~{fpsr},~{flags}"() #26, !srcloc !13
  tail call void asm sideeffect "", "~{memory},~{dirflag},~{fpsr},~{flags}"() #26, !srcloc !14
  store volatile i32 0, ptr %2, align 8
  ret void
}